target datalayout = "e-m:e-p270:32:32-p271:32:32-p272:64:64-i64:64-i128:128-f80:128-n8:16:32:64-S128"
target triple = "x86_64-unknown-linux-gnu"

%class.b3AngularLimit = type <{ float, float, float, float, float, float, float, i8, [3 x i8] }>

; Function Attrs: mustprogress nounwind uwtable
define linkonce_odr dso_local noundef float @_Z6b3Fmodff(float noundef %x, float noundef %y) #1 comdat {
entry:
  %x.addr = alloca float, align 4
  %y.addr = alloca float, align 4
  store float %x, ptr %x.addr, align 4
  store float %y, ptr %y.addr, align 4
  %0 = load float, ptr %x.addr, align 4
  %1 = load float, ptr %y.addr, align 4
  %call = call float @fmodf(float noundef %0, float noundef %1) #5
  ret float %call
}

; Function Attrs: mustprogress uwtable
define linkonce_odr dso_local noundef float @_Z16b3NormalizeAnglef(float noundef %angleInRadians) #0 comdat {
entry:
  %retval = alloca float, align 4
  %angleInRadians.addr = alloca float, align 4
  store float %angleInRadians, ptr %angleInRadians.addr, align 4
  %0 = load float, ptr %angleInRadians.addr, align 4
  %call = call noundef float @_Z6b3Fmodff(float noundef %0, float noundef 0x401921FB60000000)
  store float %call, ptr %angleInRadians.addr, align 4
  %1 = load float, ptr %angleInRadians.addr, align 4
  %cmp = fcmp olt float %1, 0xC00921FB60000000
  br i1 %cmp, label %if.then, label %if.else

if.then:                                          ; preds = %entry
  %2 = load float, ptr %angleInRadians.addr, align 4
  %add = fadd float %2, 0x401921FB60000000
  store float %add, ptr %retval, align 4
  br label %return

if.else:                                          ; preds = %entry
  %3 = load float, ptr %angleInRadians.addr, align 4
  %cmp1 = fcmp ogt float %3, 0x400921FB60000000
  br i1 %cmp1, label %if.then2, label %if.else3

if.then2:                                         ; preds = %if.else
  %4 = load float, ptr %angleInRadians.addr, align 4
  %sub = fsub float %4, 0x401921FB60000000
  store float %sub, ptr %retval, align 4
  br label %return

if.else3:                                         ; preds = %if.else
  %5 = load float, ptr %angleInRadians.addr, align 4
  store float %5, ptr %retval, align 4
  br label %return

return:                                           ; preds = %if.else3, %if.then2, %if.then
  %6 = load float, ptr %retval, align 4
  ret float %6
}

; Function Attrs: mustprogress uwtable
define dso_local noundef float @_ZNK14b3AngularLimit7getHighEv(ptr noundef nonnull align 4 dereferenceable(29) %this) #0 align 2 {
entry:
  %this.addr = alloca ptr, align 8
  store ptr %this, ptr %this.addr, align 8
  %this1 = load ptr, ptr %this.addr, align 8
  %m_center = getelementptr inbounds %class.b3AngularLimit, ptr %this1, i32 0, i32 0
  %0 = load float, ptr %m_center, align 4
  %m_halfRange = getelementptr inbounds %class.b3AngularLimit, ptr %this1, i32 0, i32 1
  %1 = load float, ptr %m_halfRange, align 4
  %add = fadd float %0, %1
  %call = call noundef float @_Z16b3NormalizeAnglef(float noundef %add)
  ret float %call
}