; Function Attrs: mustprogress nofree nounwind willreturn memory(write, argmem: readwrite) uwtable
define dso_local noundef float @_ZNK14b3AngularLimit7getHighEv(ptr nocapture noundef nonnull readonly align 4 dereferenceable(29) %this) local_unnamed_addr #3 align 2 {
entry:
  %0 = load float, ptr %this, align 4
  %m_halfRange = getelementptr inbounds i8, ptr %this, i64 4
  %1 = load float, ptr %m_halfRange, align 4
  %add = fadd float %0, %1
  %call.i.i = tail call noundef float @fmodf(float noundef %add, float noundef 0x401921FB60000000) #9
  %cmp.i = fcmp olt float %call.i.i, 0xC00921FB60000000
  br i1 %cmp.i, label %if.then.i, label %if.else.i

if.then.i:                                        ; preds = %entry
  %add.i = fadd float %call.i.i, 0x401921FB60000000
  br label %_Z16b3NormalizeAnglef.exit

if.else.i:                                        ; preds = %entry
  %cmp1.i = fcmp ogt float %call.i.i, 0x400921FB60000000
  br i1 %cmp1.i, label %if.then2.i, label %_Z16b3NormalizeAnglef.exit

if.then2.i:                                       ; preds = %if.else.i
  %sub.i = fadd float %call.i.i, 0xC01921FB60000000
  br label %_Z16b3NormalizeAnglef.exit

_Z16b3NormalizeAnglef.exit:                       ; preds = %if.then.i, %if.else.i, %if.then2.i
  %retval.0.i = phi float [ %add.i, %if.then.i ], [ %sub.i, %if.then2.i ], [ %call.i.i, %if.else.i ]
  ret float %retval.0.i
}